(dp0
S'172.27.19.17'
p1
(dp2
S'nick'
p3
S'nick2'
p4
sS'fileList'
p5
(dp6
S'testFile'
p7
S''
p8
sssS'172.27.19.18'
p9
(dp10
S'nick'
p11
S'nick3'
p12
sS'fileList'
p13
(dp14
S'testFile1'
p15
g8
sssS'127.0.0.1'
p16
(dp17
S'nick'
p18
S'nick1'
p19
sS'fileList'
p20
(dp21
S'testFile'
p22
g8
sss.